target datalayout = "e-m:e-p270:32:32-p271:32:32-p272:64:64-i64:64-i128:128-f80:128-n8:16:32:64-S128"
target triple = "x86_64-pc-linux-gnu"

%"class.google::protobuf::internal::InternalMetadata" = type { i64 }
%"struct.google::protobuf::internal::ArenaStringPtr" = type { %"class.google::protobuf::internal::TaggedPtr" }
%"class.google::protobuf::internal::TaggedPtr" = type { ptr }
%"class.google::protobuf::Message" = type { %"class.google::protobuf::MessageLite" }
%"class.google::protobuf::MessageLite" = type { ptr, %"class.google::protobuf::internal::InternalMetadata" }
%"class.google::protobuf::internal::CachedSize" = type { %"struct.std::atomic" }
%"struct.std::atomic" = type { %"struct.std::__atomic_base" }
%"struct.std::__atomic_base" = type { i32 }
%"class.opencv_tensorflow::OpDeprecation" = type { %"class.google::protobuf::Message", %"struct.google::protobuf::internal::ArenaStringPtr", i32, %"class.google::protobuf::internal::CachedSize" }

; Function Attrs: alwaysinline mustprogress nounwind uwtable
define linkonce_odr hidden noundef zeroext i1 @_ZNK6google8protobuf8internal16InternalMetadata19HasUnknownFieldsTagEv(ptr noundef nonnull align 8 dereferenceable(8) %0) #15 comdat align 2 {
  %2 = alloca ptr, align 8
  store ptr %0, ptr %2, align 8, !tbaa !22
  %3 = load ptr, ptr %2, align 8
  %4 = getelementptr inbounds nuw %"class.google::protobuf::internal::InternalMetadata", ptr %3, i32 0, i32 0
  %5 = load i64, ptr %4, align 8, !tbaa !147
  %6 = and i64 %5, 1
  %7 = icmp ne i64 %6, 0
  ret i1 %7
}

; Function Attrs: alwaysinline mustprogress uwtable
define linkonce_odr hidden noundef zeroext i1 @_ZNK6google8protobuf8internal16InternalMetadata19have_unknown_fieldsEv(ptr noundef nonnull align 8 dereferenceable(8) %0) #8 comdat align 2 {
  %2 = alloca ptr, align 8
  store ptr %0, ptr %2, align 8, !tbaa !22
  %3 = load ptr, ptr %2, align 8
  %4 = call noundef zeroext i1 @_ZNK6google8protobuf8internal16InternalMetadata19HasUnknownFieldsTagEv(ptr noundef nonnull align 8 dereferenceable(8) %3)
  ret i1 %4
}

; Function Attrs: alwaysinline mustprogress uwtable
define linkonce_odr hidden void @_ZN6google8protobuf8internal16InternalMetadata5ClearINS0_15UnknownFieldSetEEEvv(ptr noundef nonnull align 8 dereferenceable(8) %0) #8 comdat align 2 {
  %2 = alloca ptr, align 8
  store ptr %0, ptr %2, align 8, !tbaa !22
  %3 = load ptr, ptr %2, align 8
  %4 = call noundef zeroext i1 @_ZNK6google8protobuf8internal16InternalMetadata19have_unknown_fieldsEv(ptr noundef nonnull align 8 dereferenceable(8) %3)
  br i1 %4, label %5, label %6

5:                                                ; preds = %1
  call void @_ZN6google8protobuf8internal16InternalMetadata7DoClearINS0_15UnknownFieldSetEEEvv(ptr noundef nonnull align 8 dereferenceable(8) %3)
  br label %6

6:                                                ; preds = %5, %1
  ret void
}

; Function Attrs: mustprogress uwtable
define hidden void @_ZN17opencv_tensorflow13OpDeprecation5ClearEv(ptr noundef nonnull align 8 dereferenceable(32) %0) unnamed_addr #4 align 2 {
  %2 = alloca ptr, align 8
  %3 = alloca i32, align 4
  store ptr %0, ptr %2, align 8, !tbaa !116
  %4 = load ptr, ptr %2, align 8
  call void @llvm.lifetime.start.p0(i64 4, ptr %3) #3
  store i32 0, ptr %3, align 4, !tbaa !31
  %5 = getelementptr inbounds nuw %"class.opencv_tensorflow::OpDeprecation", ptr %4, i32 0, i32 1
  call void @_ZN6google8protobuf8internal14ArenaStringPtr12ClearToEmptyEv(ptr noundef nonnull align 8 dereferenceable(8) %5)
  %6 = getelementptr inbounds nuw %"class.opencv_tensorflow::OpDeprecation", ptr %4, i32 0, i32 2
  store i32 0, ptr %6, align 8, !tbaa !130
  %7 = getelementptr inbounds nuw %"class.google::protobuf::MessageLite", ptr %4, i32 0, i32 1
  call void @_ZN6google8protobuf8internal16InternalMetadata5ClearINS0_15UnknownFieldSetEEEvv(ptr noundef nonnull align 8 dereferenceable(8) %7)
  call void @llvm.lifetime.end.p0(i64 4, ptr %3) #3
  ret void
}